; Function Attrs: nounwind uwtable
define ptr @l_Lake_Job_bindTask___rarg___lambda__1(ptr noundef %0, ptr noundef readonly captures(none) %1, ptr noundef %2, ptr noundef %3) local_unnamed_addr #0 {
  %5 = getelementptr inbounds nuw i8, ptr %0, i64 8
  %6 = load ptr, ptr %5, align 8, !tbaa !4
  %7 = ptrtoint ptr %6 to i64
  %8 = and i64 %7, 1
  %.not = icmp eq i64 %8, 0
  br i1 %.not, label %9, label %lean_inc.exit20

9:                                                ; preds = %4
  %.val.i = load i32, ptr %6, align 4, !tbaa !8
  %10 = icmp sgt i32 %.val.i, 0
  br i1 %10, label %11, label %13, !prof !11

11:                                               ; preds = %9
  %12 = add nuw i32 %.val.i, 1
  store i32 %12, ptr %6, align 4, !tbaa !8
  br label %lean_inc.exit20

13:                                               ; preds = %9
  %.not.i24 = icmp eq i32 %.val.i, 0
  br i1 %.not.i24, label %lean_inc.exit20, label %14

14:                                               ; preds = %13
  tail call void @lean_inc_ref_cold(ptr noundef nonnull %6) #4
  br label %lean_inc.exit20

lean_inc.exit20:                                  ; preds = %14, %13, %11, %4
  %15 = ptrtoint ptr %0 to i64
  %16 = and i64 %15, 1
  %.not31 = icmp eq i64 %16, 0
  br i1 %.not31, label %17, label %lean_dec.exit21

17:                                               ; preds = %lean_inc.exit20
  %18 = load i32, ptr %0, align 4, !tbaa !8
  %19 = icmp sgt i32 %18, 1
  br i1 %19, label %20, label %22, !prof !11

20:                                               ; preds = %17
  %21 = add nsw i32 %18, -1
  store i32 %21, ptr %0, align 4, !tbaa !8
  br label %lean_dec.exit21

22:                                               ; preds = %17
  %.not.i = icmp eq i32 %18, 0
  br i1 %.not.i, label %lean_dec.exit21, label %23

23:                                               ; preds = %22
  tail call void @lean_dec_ref_cold(ptr noundef nonnull %0) #4
  br label %lean_dec.exit21

lean_dec.exit21:                                  ; preds = %23, %22, %20, %lean_inc.exit20
  %24 = getelementptr inbounds nuw i8, ptr %6, i64 16
  %25 = load ptr, ptr %24, align 8, !tbaa !4
  %26 = ptrtoint ptr %25 to i64
  %27 = and i64 %26, 1
  %.not32 = icmp eq i64 %27, 0
  br i1 %.not32, label %28, label %lean_inc.exit19

28:                                               ; preds = %lean_dec.exit21
  %.val.i25 = load i32, ptr %25, align 4, !tbaa !8
  %29 = icmp sgt i32 %.val.i25, 0
  br i1 %29, label %30, label %32, !prof !11

30:                                               ; preds = %28
  %31 = add nuw i32 %.val.i25, 1
  store i32 %31, ptr %25, align 4, !tbaa !8
  br label %lean_inc.exit19

32:                                               ; preds = %28
  %.not.i26 = icmp eq i32 %.val.i25, 0
  br i1 %.not.i26, label %lean_inc.exit19, label %33

33:                                               ; preds = %32
  tail call void @lean_inc_ref_cold(ptr noundef nonnull %25) #4
  br label %lean_inc.exit19

lean_inc.exit19:                                  ; preds = %33, %32, %30, %lean_dec.exit21
  br i1 %.not, label %34, label %lean_dec.exit

34:                                               ; preds = %lean_inc.exit19
  %35 = load i32, ptr %6, align 4, !tbaa !8
  %36 = icmp sgt i32 %35, 1
  br i1 %36, label %37, label %39, !prof !11

37:                                               ; preds = %34
  %38 = add nsw i32 %35, -1
  store i32 %38, ptr %6, align 4, !tbaa !8
  br label %lean_dec.exit

39:                                               ; preds = %34
  %.not.i22 = icmp eq i32 %35, 0
  br i1 %.not.i22, label %lean_dec.exit, label %40

40:                                               ; preds = %39
  tail call void @lean_dec_ref_cold(ptr noundef nonnull %6) #4
  br label %lean_dec.exit

lean_dec.exit:                                    ; preds = %40, %39, %37, %lean_inc.exit19
  %41 = getelementptr inbounds nuw i8, ptr %1, i64 24
  %42 = load ptr, ptr %41, align 8, !tbaa !4
  %43 = getelementptr inbounds nuw i8, ptr %1, i64 32
  %44 = load i8, ptr %43, align 1, !tbaa !16
  %45 = ptrtoint ptr %42 to i64
  %46 = and i64 %45, 1
  %.not33 = icmp eq i64 %46, 0
  br i1 %.not33, label %47, label %lean_inc.exit

47:                                               ; preds = %lean_dec.exit
  %.val.i28 = load i32, ptr %42, align 4, !tbaa !8
  %48 = icmp sgt i32 %.val.i28, 0
  br i1 %48, label %49, label %51, !prof !11

49:                                               ; preds = %47
  %50 = add nuw i32 %.val.i28, 1
  store i32 %50, ptr %42, align 4, !tbaa !8
  br label %lean_inc.exit

51:                                               ; preds = %47
  %.not.i29 = icmp eq i32 %.val.i28, 0
  br i1 %.not.i29, label %lean_inc.exit, label %52

52:                                               ; preds = %51
  tail call void @lean_inc_ref_cold(ptr noundef nonnull %42) #4
  br label %lean_inc.exit

lean_inc.exit:                                    ; preds = %52, %51, %49, %lean_dec.exit
  tail call void @lean_inc_heartbeat() #4
  %53 = tail call noalias ptr @mi_malloc_small(i64 noundef 40) #4
  %54 = icmp eq ptr %53, null
  br i1 %54, label %55, label %lean_alloc_ctor.exit

55:                                               ; preds = %lean_inc.exit
  tail call void @lean_internal_panic_out_of_memory() #5
  unreachable

lean_alloc_ctor.exit:                             ; preds = %lean_inc.exit
  %56 = getelementptr inbounds nuw i8, ptr %53, i64 4
  %57 = getelementptr inbounds nuw i8, ptr %53, i64 32
  store i64 0, ptr %57, align 8, !tbaa !12
  store i32 1, ptr %53, align 4, !tbaa !8
  store i32 196648, ptr %56, align 4
  %58 = getelementptr inbounds nuw i8, ptr %53, i64 8
  store ptr %3, ptr %58, align 8, !tbaa !4
  %59 = getelementptr inbounds nuw i8, ptr %53, i64 16
  store ptr %2, ptr %59, align 8, !tbaa !4
  %60 = getelementptr inbounds nuw i8, ptr %53, i64 24
  store ptr %42, ptr %60, align 8, !tbaa !4
  store i8 %44, ptr %57, align 1, !tbaa !16
  %61 = tail call ptr @lean_apply_2(ptr noundef %25, ptr noundef nonnull inttoptr (i64 1 to ptr), ptr noundef nonnull %53) #4
  ret ptr %61
}